Certificate:
    Data:
        Version: 3 (0x2)
        Serial Number: 4096 (0x1000)
    Signature Algorithm: md5WithRSAEncryption
        Issuer: C=US, ST=Utah, L=SLC, O=UofU, OU=MSD, CN=CA
        Validity
            Not Before: Mar 27 06:23:05 2023 GMT
            Not After : Mar 26 06:23:05 2024 GMT
        Subject: C=US, ST=Utah, O=UofU, OU=MSD, CN=server
        Subject Public Key Info:
            Public Key Algorithm: rsaEncryption
                Public-Key: (4096 bit)
                Modulus:
                    00:f3:ab:5a:b4:f5:73:4c:b1:b0:84:a4:ee:81:11:
                    70:94:87:d2:4f:1a:9a:04:34:eb:ea:11:12:c9:3e:
                    43:28:71:6b:56:40:89:41:f1:7d:2c:fd:68:c9:56:
                    90:d8:71:0c:e4:67:7c:de:3a:20:7b:ae:10:5d:91:
                    35:cf:8a:40:1d:b9:cd:77:0c:96:4e:6b:99:bf:55:
                    22:71:89:88:75:89:00:9e:f1:4b:f1:4a:13:b4:3e:
                    aa:cf:5b:30:21:b7:ad:28:ff:71:b1:74:c3:fe:01:
                    51:e3:20:0a:ee:db:a5:63:5e:c4:08:2b:7e:e4:20:
                    49:58:fe:10:1e:e8:0f:7e:ae:c6:cc:b8:e6:89:18:
                    a3:b2:05:4d:25:47:20:bc:72:ed:96:2f:a0:93:b4:
                    71:f4:18:e4:59:2c:cd:68:b8:3a:1e:ab:c1:d7:fd:
                    24:03:f1:71:1b:6a:78:a3:e9:93:3a:e9:d7:1e:5b:
                    01:33:ca:a9:2c:5b:ee:48:dd:13:e5:5c:5d:d5:2c:
                    6e:93:78:81:e9:1a:fa:b3:bf:45:3f:09:17:7e:7c:
                    40:ef:80:f1:2c:2e:7f:a7:b6:4e:c5:6b:b2:13:b6:
                    91:1c:fd:5a:ce:b7:4e:b0:12:ac:92:68:14:d8:91:
                    fe:e3:18:dc:9a:70:c7:25:c0:59:1b:2e:ba:90:11:
                    d5:7b:59:83:44:17:fe:c3:13:22:58:ef:40:be:69:
                    c4:e1:c6:51:a2:01:4e:30:b9:b6:67:2d:44:d4:05:
                    7d:80:a1:bb:a4:1f:28:85:f3:8d:7c:94:26:06:64:
                    99:68:0a:88:b6:91:a5:9a:30:d6:c8:ed:0f:33:c1:
                    97:4a:44:c3:a0:87:a9:54:91:ee:fb:b7:c4:74:85:
                    66:24:d5:46:e6:ab:63:78:f4:d8:4b:56:5e:6b:b7:
                    a6:b0:d7:40:9e:27:3f:73:79:03:d1:d0:db:2e:d1:
                    70:97:f8:a6:02:20:75:8b:07:54:87:84:b8:f3:37:
                    81:32:10:37:b3:02:f1:71:98:fb:4c:08:39:ed:eb:
                    a8:dc:27:0a:2c:57:10:76:2a:5a:b9:1d:fb:72:2f:
                    41:07:a4:99:d9:3a:af:57:00:f7:09:45:1f:32:cd:
                    24:22:ac:2c:12:ef:e1:90:88:e6:5c:da:bb:ae:41:
                    ff:c4:49:d5:29:f0:d2:50:35:cf:3a:27:aa:6e:a1:
                    dc:eb:f1:1f:8e:7c:a2:ec:00:67:cf:79:30:b6:b7:
                    fa:37:ab:de:3b:e7:b3:a3:c6:cf:08:01:e3:48:f2:
                    4e:4b:66:17:a2:3d:da:d0:a5:aa:e7:c4:b3:59:cd:
                    40:cf:40:d3:39:20:08:e6:96:18:c6:14:9f:86:b3:
                    c6:45:47
                Exponent: 65537 (0x10001)
        X509v3 extensions:
            X509v3 Basic Constraints: 
                CA:FALSE
            Netscape Comment: 
                OpenSSL Generated Certificate
            X509v3 Subject Key Identifier: 
                7E:69:27:72:59:81:0C:90:21:98:C8:68:FC:5F:B0:10:54:B0:0E:C5
            X509v3 Authority Key Identifier: 
                DirName:/C=US/ST=Utah/L=SLC/O=UofU/OU=MSD/CN=CA
                serial:A2:CE:98:BA:40:BA:87:AA

    Signature Algorithm: md5WithRSAEncryption
         a5:3e:69:50:66:fa:01:2a:39:da:5f:80:80:b9:4c:a9:6f:51:
         7d:21:1e:1c:62:f5:ac:67:b7:c5:98:b3:25:3e:a2:32:a6:10:
         84:23:fc:f5:22:85:14:8d:6b:fd:ac:a2:ef:53:01:a5:de:1e:
         16:c7:3b:77:4f:7c:9b:27:23:5b:1c:98:f3:1e:1f:c5:56:08:
         e4:ed:d4:07:0a:44:31:6a:1d:82:8c:d1:8f:c6:60:39:3b:b1:
         d4:7d:9d:a3:57:d0:13:11:c4:a2:d6:84:71:89:e0:5d:a6:70:
         8b:01:c7:ac:ee:65:be:0e:53:5b:ec:94:d9:d9:5d:31:b1:b4:
         65:5e:c1:33:01:e9:51:d4:c6:9a:b4:68:b4:9d:e2:e3:31:f1:
         75:bb:66:ac:d0:bf:4e:e9:2b:d9:bd:37:15:91:7a:bd:a6:84:
         f5:bf:92:9f:07:8a:60:5e:8b:ef:48:c4:3c:8c:25:f3:bc:65:
         7e:f3:16:ae:d5:2a:86:69:9a:8e:0b:f5:8f:77:0b:31:b3:40:
         1c:9d:3c:1e:40:f8:80:1f:6d:97:c4:39:c8:21:a2:bb:ce:8e:
         69:0b:84:56:e6:f6:de:89:59:95:92:c3:c5:b9:00:6a:5c:61:
         a7:13:99:89:0e:1a:52:a3:d4:51:bd:29:f5:f8:31:6b:af:f0:
         51:c3:18:75:d5:56:f5:6f:07:f3:f4:9a:28:ef:c1:1e:a2:3c:
         96:02:6c:d3:e7:30:cd:ab:f6:5f:af:a1:55:64:4a:ae:35:a6:
         2b:79:b0:28:0e:8f:34:95:56:ef:75:32:82:98:bd:d0:51:3d:
         15:0e:9f:61:21:5d:6f:97:68:a8:9f:ff:cd:fc:f3:85:0f:3d:
         ea:b5:13:9e:4e:3f:e4:1a:60:05:d2:e7:75:56:5f:b7:e1:e1:
         c1:3d:4a:77:f1:0f:e5:06:b4:e6:ea:f0:6e:fb:df:27:c7:4c:
         b6:57:47:66:f7:0c:f2:81:2b:98:76:1e:e4:4d:56:f4:32:9a:
         31:63:7c:3b:e8:81:d1:ca:a6:34:4d:24:c7:c7:9e:a0:e4:d6:
         c1:e4:ca:ff:8a:19:50:82:4f:10:20:95:1c:ec:37:9a:82:46:
         ee:03:10:2a:31:55:f9:89:be:eb:89:c6:f2:f8:61:f4:e7:c9:
         66:6f:ba:ba:26:98:fc:02:22:65:d9:6d:46:bc:8f:f6:12:09:
         e0:bc:4a:4e:f1:3b:71:d4:23:62:08:73:ef:61:86:d9:0a:de:
         a7:62:9c:3e:ac:50:f8:de:f4:e8:85:f1:e4:c1:15:dc:b4:ae:
         08:df:06:ba:e3:42:82:f5:35:22:1f:b8:2d:37:e5:3c:85:30:
         f1:68:22:e2:b4:5e:8c:77
-----BEGIN CERTIFICATE-----
MIIF5jCCA86gAwIBAgICEAAwDQYJKoZIhvcNAQEEBQAwVDELMAkGA1UEBhMCVVMx
DTALBgNVBAgMBFV0YWgxDDAKBgNVBAcMA1NMQzENMAsGA1UECgwEVW9mVTEMMAoG
A1UECwwDTVNEMQswCQYDVQQDDAJDQTAeFw0yMzAzMjcwNjIzMDVaFw0yNDAzMjYw
NjIzMDVaMEoxCzAJBgNVBAYTAlVTMQ0wCwYDVQQIDARVdGFoMQ0wCwYDVQQKDARV
b2ZVMQwwCgYDVQQLDANNU0QxDzANBgNVBAMMBnNlcnZlcjCCAiIwDQYJKoZIhvcN
AQEBBQADggIPADCCAgoCggIBAPOrWrT1c0yxsISk7oERcJSH0k8amgQ06+oREsk+
Qyhxa1ZAiUHxfSz9aMlWkNhxDORnfN46IHuuEF2RNc+KQB25zXcMlk5rmb9VInGJ
iHWJAJ7xS/FKE7Q+qs9bMCG3rSj/cbF0w/4BUeMgCu7bpWNexAgrfuQgSVj+EB7o
D36uxsy45okYo7IFTSVHILxy7ZYvoJO0cfQY5FkszWi4Oh6rwdf9JAPxcRtqeKPp
kzrp1x5bATPKqSxb7kjdE+VcXdUsbpN4geka+rO/RT8JF358QO+A8Swuf6e2TsVr
shO2kRz9Ws63TrASrJJoFNiR/uMY3JpwxyXAWRsuupAR1XtZg0QX/sMTIljvQL5p
xOHGUaIBTjC5tmctRNQFfYChu6QfKIXzjXyUJgZkmWgKiLaRpZow1sjtDzPBl0pE
w6CHqVSR7vu3xHSFZiTVRuarY3j02EtWXmu3prDXQJ4nP3N5A9HQ2y7RcJf4pgIg
dYsHVIeEuPM3gTIQN7MC8XGY+0wIOe3rqNwnCixXEHYqWrkd+3IvQQekmdk6r1cA
9wlFHzLNJCKsLBLv4ZCI5lzau65B/8RJ1Snw0lA1zzonqm6h3OvxH458ouwAZ895
MLa3+jer3jvns6PGzwgB40jyTktmF6I92tClqufEs1nNQM9A0zkgCOaWGMYUn4az
xkVHAgMBAAGjgcswgcgwCQYDVR0TBAIwADAsBglghkgBhvhCAQ0EHxYdT3BlblNT
TCBHZW5lcmF0ZWQgQ2VydGlmaWNhdGUwHQYDVR0OBBYEFH5pJ3JZgQyQIZjIaPxf
sBBUsA7FMG4GA1UdIwRnMGWhWKRWMFQxCzAJBgNVBAYTAlVTMQ0wCwYDVQQIDARV
dGFoMQwwCgYDVQQHDANTTEMxDTALBgNVBAoMBFVvZlUxDDAKBgNVBAsMA01TRDEL
MAkGA1UEAwwCQ0GCCQCizpi6QLqHqjANBgkqhkiG9w0BAQQFAAOCAgEApT5pUGb6
ASo52l+AgLlMqW9RfSEeHGL1rGe3xZizJT6iMqYQhCP89SKFFI1r/ayi71MBpd4e
Fsc7d098mycjWxyY8x4fxVYI5O3UBwpEMWodgozRj8ZgOTux1H2do1fQExHEotaE
cYngXaZwiwHHrO5lvg5TW+yU2dldMbG0ZV7BMwHpUdTGmrRotJ3i4zHxdbtmrNC/
Tukr2b03FZF6vaaE9b+SnweKYF6L70jEPIwl87xlfvMWrtUqhmmajgv1j3cLMbNA
HJ08HkD4gB9tl8Q5yCGiu86OaQuEVub23olZlZLDxbkAalxhpxOZiQ4aUqPUUb0p
9fgxa6/wUcMYddVW9W8H8/SaKO/BHqI8lgJs0+cwzav2X6+hVWRKrjWmK3mwKA6P
NJVW73Uygpi90FE9FQ6fYSFdb5doqJ//zfzzhQ896rUTnk4/5BpgBdLndVZft+Hh
wT1Kd/EP5Qa05urwbvvfJ8dMtldHZvcM8oErmHYe5E1W9DKaMWN8O+iB0cqmNE0k
x8eeoOTWweTK/4oZUIJPECCVHOw3moJG7gMQKjFV+Ym+64nG8vhh9OfJZm+6uiaY
/AIiZdltRryP9hIJ4LxKTvE7cdQjYghz72GG2Qrep2KcPqxQ+N706IXx5MEV3LSu
CN8GuuNCgvU1Ih+4LTflPIUw8Wgi4rRejHc=
-----END CERTIFICATE-----
