Certificate:
    Data:
        Version: 3 (0x2)
        Serial Number: 4097 (0x1001)
    Signature Algorithm: md5WithRSAEncryption
        Issuer: C=US, ST=Utah, L=SLC, O=UofU, OU=MSD, CN=CA
        Validity
            Not Before: Mar 27 06:36:15 2023 GMT
            Not After : Mar 26 06:36:15 2024 GMT
        Subject: C=US, ST=Utah, O=UofU, OU=MSD, CN=client
        Subject Public Key Info:
            Public Key Algorithm: rsaEncryption
                Public-Key: (4096 bit)
                Modulus:
                    00:d0:78:47:b2:16:3f:58:dc:a9:4c:6c:8c:e8:ef:
                    85:cd:44:4b:15:24:13:1f:0a:b6:13:ed:74:fe:08:
                    dc:b3:53:d9:ad:1a:c6:81:af:85:cf:6b:9e:57:a0:
                    05:75:73:65:66:56:fa:76:9d:83:36:7e:f3:be:ef:
                    85:7a:81:05:88:5f:ee:fd:09:83:98:ff:83:ee:c0:
                    5b:c0:3d:cf:56:56:d1:b8:1a:5c:a9:a7:8a:ce:01:
                    70:07:42:c4:3c:f6:e5:82:0a:67:16:b8:d5:02:1f:
                    e4:dd:67:d0:f2:c1:c0:f2:19:71:e0:62:18:1f:eb:
                    8e:95:d6:c4:cc:d1:bf:1c:02:4a:56:60:90:36:ea:
                    ab:e5:68:ed:93:8b:22:c6:06:38:2c:d4:7c:01:95:
                    da:0e:02:ce:3e:d1:73:f0:f0:19:39:bb:83:f5:79:
                    6e:48:22:81:5d:e1:48:8a:02:16:3b:78:8a:e4:be:
                    63:19:0b:f9:ae:67:34:18:97:5e:b5:52:4f:74:7d:
                    f7:96:35:24:14:eb:77:29:a0:34:41:32:8b:42:98:
                    fa:9d:15:8e:1f:b3:86:62:1c:1b:bc:50:83:c8:a9:
                    be:c8:64:80:8e:6d:29:5e:4b:c0:55:43:ab:57:eb:
                    16:5f:2c:28:f7:37:7e:fc:16:b1:97:d9:e0:7e:5f:
                    b6:1a:3f:06:21:d6:af:3f:5a:fb:15:a0:a5:7a:75:
                    dc:60:48:ea:b4:d1:05:8a:a3:9b:15:1e:58:f9:42:
                    22:17:42:cd:85:3c:78:ed:ae:15:ba:d1:2b:99:89:
                    96:a4:3e:e1:38:c3:09:11:51:92:c6:26:a0:c8:1d:
                    30:e8:ed:53:bc:7c:7d:81:c7:86:63:ae:dc:a4:35:
                    8a:00:54:90:43:23:b2:86:2d:3d:23:cd:b0:5f:84:
                    09:91:3c:d0:4e:d9:0d:ef:60:4d:d5:11:46:9a:83:
                    c9:b4:0f:a4:dc:9f:37:f1:d6:30:8b:21:22:a0:63:
                    ed:15:32:6b:b1:9f:ac:cd:d2:0c:0d:c3:f2:ae:4d:
                    36:12:f8:0c:bf:ab:ab:ef:7c:81:fd:d0:45:96:a3:
                    4b:d6:c1:16:51:f4:84:a7:3b:ac:8e:34:a8:d4:28:
                    87:a7:fa:b8:19:55:f7:61:f8:b2:d8:48:66:31:e1:
                    7b:34:5c:e7:05:ee:bc:ac:e5:f7:fc:d7:0a:de:d2:
                    ee:df:42:ca:68:16:21:e3:69:52:43:17:8c:6a:f3:
                    ad:23:11:f3:6a:53:c2:37:af:70:6c:91:5a:29:5f:
                    57:b5:cf:2e:c8:54:b8:d8:46:cf:b2:76:8c:d3:e3:
                    b4:88:5d:d3:0e:89:7f:84:29:00:c1:c0:89:15:30:
                    c8:1f:39
                Exponent: 65537 (0x10001)
        X509v3 extensions:
            X509v3 Basic Constraints: 
                CA:FALSE
            Netscape Comment: 
                OpenSSL Generated Certificate
            X509v3 Subject Key Identifier: 
                82:39:D3:2C:1A:CA:8E:F0:2D:F7:42:99:F7:49:AE:81:DE:58:BF:0C
            X509v3 Authority Key Identifier: 
                DirName:/C=US/ST=Utah/L=SLC/O=UofU/OU=MSD/CN=CA
                serial:A2:CE:98:BA:40:BA:87:AA

    Signature Algorithm: md5WithRSAEncryption
         a0:7b:9d:18:ac:23:6c:17:c5:d6:27:c3:be:ed:ad:02:84:ff:
         0a:e8:ba:ea:c0:3a:a4:42:b8:cf:23:97:98:15:a7:17:50:fc:
         07:4c:4a:81:ca:7b:1d:c1:9e:12:f5:3b:ba:a2:72:e3:76:2f:
         74:ea:10:7b:76:63:0a:4b:f3:39:30:a8:7f:dd:ee:db:b2:42:
         11:04:4b:80:54:81:20:fa:52:08:ed:80:a1:f9:55:10:b9:1a:
         28:b7:5a:f7:7a:79:2e:82:d4:d3:5d:0f:ff:91:dc:cb:2d:bc:
         e6:e9:4c:da:29:be:cd:6b:5e:86:0d:45:9a:8c:af:a8:f4:83:
         95:20:21:45:24:9f:2f:da:c5:dd:86:11:a5:63:3c:a3:88:5a:
         f4:16:18:c7:9c:84:cf:3a:75:b4:7f:0e:85:8c:93:9d:08:9f:
         da:6f:51:e4:d9:ae:24:84:36:35:e3:60:64:f5:02:3b:d4:c7:
         38:55:26:78:c9:0e:7a:be:44:12:9f:f7:41:89:ea:48:93:9d:
         0e:e9:8b:ce:6d:d2:f7:e7:69:31:bf:aa:30:05:e4:7a:4f:1d:
         be:b7:c7:8f:67:11:f0:88:8f:d1:bd:7d:2c:c6:a3:ac:de:64:
         91:23:ea:5d:8e:07:da:d7:55:4d:0b:3c:98:25:8c:af:c6:6d:
         0f:fe:9f:b9:f5:ce:69:35:6f:2b:80:39:33:48:73:31:65:4f:
         9a:b8:ac:88:e5:c2:f8:43:f7:08:81:e5:ad:f2:fb:0f:c8:32:
         b8:d6:6d:9a:cd:81:73:64:2b:ec:33:ad:1e:b9:e9:8e:41:2f:
         6d:c8:77:9a:6c:0e:64:c1:07:d3:70:00:4d:08:c5:b1:ff:ff:
         34:a1:a4:24:68:ca:43:43:63:b5:8d:70:fd:9a:f8:ca:12:bf:
         4d:ad:12:5b:61:43:f7:d9:da:51:e5:ca:c5:4f:15:01:95:11:
         2d:7b:64:ce:47:a8:23:74:4c:52:5c:93:13:d2:16:6b:a1:15:
         25:6b:e4:39:14:d6:bb:c9:8c:d5:d7:4c:ff:f0:55:76:2e:77:
         05:bf:b6:23:3b:5e:85:bb:c3:84:cf:dc:96:3b:9e:aa:c6:3d:
         69:9d:af:1b:4d:3f:11:b5:24:d7:df:5d:8b:59:71:90:1d:a3:
         3c:ae:da:2b:2f:97:82:57:07:60:e3:19:5a:d7:03:cc:88:ee:
         d1:12:6c:a2:34:df:ba:a5:98:87:30:90:83:6f:33:fd:a8:f5:
         24:c0:4e:08:18:f6:0c:cb:a4:9f:ad:d1:b7:56:8e:37:81:c2:
         c7:67:b4:12:24:ca:6e:da:1b:02:8f:fc:30:db:41:2f:aa:22:
         5b:e4:99:ef:10:9c:05:c5
-----BEGIN CERTIFICATE-----
MIIF5jCCA86gAwIBAgICEAEwDQYJKoZIhvcNAQEEBQAwVDELMAkGA1UEBhMCVVMx
DTALBgNVBAgMBFV0YWgxDDAKBgNVBAcMA1NMQzENMAsGA1UECgwEVW9mVTEMMAoG
A1UECwwDTVNEMQswCQYDVQQDDAJDQTAeFw0yMzAzMjcwNjM2MTVaFw0yNDAzMjYw
NjM2MTVaMEoxCzAJBgNVBAYTAlVTMQ0wCwYDVQQIDARVdGFoMQ0wCwYDVQQKDARV
b2ZVMQwwCgYDVQQLDANNU0QxDzANBgNVBAMMBmNsaWVudDCCAiIwDQYJKoZIhvcN
AQEBBQADggIPADCCAgoCggIBANB4R7IWP1jcqUxsjOjvhc1ESxUkEx8KthPtdP4I
3LNT2a0axoGvhc9rnlegBXVzZWZW+nadgzZ+877vhXqBBYhf7v0Jg5j/g+7AW8A9
z1ZW0bgaXKmnis4BcAdCxDz25YIKZxa41QIf5N1n0PLBwPIZceBiGB/rjpXWxMzR
vxwCSlZgkDbqq+Vo7ZOLIsYGOCzUfAGV2g4Czj7Rc/DwGTm7g/V5bkgigV3hSIoC
Fjt4iuS+YxkL+a5nNBiXXrVST3R995Y1JBTrdymgNEEyi0KY+p0Vjh+zhmIcG7xQ
g8ipvshkgI5tKV5LwFVDq1frFl8sKPc3fvwWsZfZ4H5ftho/BiHWrz9a+xWgpXp1
3GBI6rTRBYqjmxUeWPlCIhdCzYU8eO2uFbrRK5mJlqQ+4TjDCRFRksYmoMgdMOjt
U7x8fYHHhmOu3KQ1igBUkEMjsoYtPSPNsF+ECZE80E7ZDe9gTdURRpqDybQPpNyf
N/HWMIshIqBj7RUya7GfrM3SDA3D8q5NNhL4DL+rq+98gf3QRZajS9bBFlH0hKc7
rI40qNQoh6f6uBlV92H4sthIZjHhezRc5wXuvKzl9/zXCt7S7t9CymgWIeNpUkMX
jGrzrSMR82pTwjevcGyRWilfV7XPLshUuNhGz7J2jNPjtIhd0w6Jf4QpAMHAiRUw
yB85AgMBAAGjgcswgcgwCQYDVR0TBAIwADAsBglghkgBhvhCAQ0EHxYdT3BlblNT
TCBHZW5lcmF0ZWQgQ2VydGlmaWNhdGUwHQYDVR0OBBYEFII50ywayo7wLfdCmfdJ
roHeWL8MMG4GA1UdIwRnMGWhWKRWMFQxCzAJBgNVBAYTAlVTMQ0wCwYDVQQIDARV
dGFoMQwwCgYDVQQHDANTTEMxDTALBgNVBAoMBFVvZlUxDDAKBgNVBAsMA01TRDEL
MAkGA1UEAwwCQ0GCCQCizpi6QLqHqjANBgkqhkiG9w0BAQQFAAOCAgEAoHudGKwj
bBfF1ifDvu2tAoT/Cui66sA6pEK4zyOXmBWnF1D8B0xKgcp7HcGeEvU7uqJy43Yv
dOoQe3ZjCkvzOTCof93u27JCEQRLgFSBIPpSCO2AoflVELkaKLda93p5LoLU010P
/5Hcyy285ulM2im+zWtehg1FmoyvqPSDlSAhRSSfL9rF3YYRpWM8o4ha9BYYx5yE
zzp1tH8OhYyTnQif2m9R5NmuJIQ2NeNgZPUCO9THOFUmeMkOer5EEp/3QYnqSJOd
DumLzm3S9+dpMb+qMAXkek8dvrfHj2cR8IiP0b19LMajrN5kkSPqXY4H2tdVTQs8
mCWMr8ZtD/6fufXOaTVvK4A5M0hzMWVPmrisiOXC+EP3CIHlrfL7D8gyuNZtms2B
c2Qr7DOtHrnpjkEvbch3mmwOZMEH03AATQjFsf//NKGkJGjKQ0NjtY1w/Zr4yhK/
Ta0SW2FD99naUeXKxU8VAZURLXtkzkeoI3RMUlyTE9IWa6EVJWvkORTWu8mM1ddM
//BVdi53Bb+2IztehbvDhM/cljueqsY9aZ2vG00/EbUk199di1lxkB2jPK7aKy+X
glcHYOMZWtcDzIju0RJsojTfuqWYhzCQg28z/aj1JMBOCBj2DMukn63Rt1aON4HC
x2e0EiTKbtobAo/8MNtBL6oiW+SZ7xCcBcU=
-----END CERTIFICATE-----
